libcompizconfig.so.0 libcompizconfig0 #MINVER#
 _ZN6google8protobuf16RepeatedPtrFieldIN8metadata31Plugin_Option_StringRestrictionEED1Ev@Base 0.8.8
 _ZN6google8protobuf16RepeatedPtrFieldIN8metadata31Plugin_Option_StringRestrictionEED2Ev@Base 0.8.8
 _ZN6google8protobuf16RepeatedPtrFieldISsE4SwapEPS2_@Base 0.8.8
 _ZN6google8protobuf16RepeatedPtrFieldISsED1Ev@Base 0.8.8
 _ZN6google8protobuf16RepeatedPtrFieldISsED2Ev@Base 0.8.8
 _ZN6google8protobuf8internal20RepeatedPtrFieldBase7DestroyINS0_16RepeatedPtrFieldIN8metadata13Plugin_OptionEE11TypeHandlerEEEvv@Base 0.8.8
 _ZN6google8protobuf8internal20RepeatedPtrFieldBase7DestroyINS0_16RepeatedPtrFieldIN8metadata16Plugin_ExtensionEE11TypeHandlerEEEvv@Base 0.8.8
 _ZN6google8protobuf8internal20RepeatedPtrFieldBase7DestroyINS0_16RepeatedPtrFieldIN8metadata26Plugin_Option_GenericValueEE11TypeHandlerEEEvv@Base 0.8.8
 _ZN6google8protobuf8internal20RepeatedPtrFieldBase7DestroyINS0_16RepeatedPtrFieldIN8metadata28Plugin_Option_IntDescriptionEE11TypeHandlerEEEvv@Base 0.8.8
 _ZN6google8protobuf8internal20RepeatedPtrFieldBase9MergeFromINS0_16RepeatedPtrFieldIN8metadata13Plugin_OptionEE11TypeHandlerEEEvRKS2_@Base 0.8.8
 _ZN6google8protobuf8internal20RepeatedPtrFieldBase9MergeFromINS0_16RepeatedPtrFieldIN8metadata16Plugin_ExtensionEE11TypeHandlerEEEvRKS2_@Base 0.8.8
 _ZN6google8protobuf8internal20RepeatedPtrFieldBase9MergeFromINS0_16RepeatedPtrFieldIN8metadata26Plugin_Option_GenericValueEE11TypeHandlerEEEvRKS2_@Base 0.8.8
 _ZN6google8protobuf8internal20RepeatedPtrFieldBase9MergeFromINS0_16RepeatedPtrFieldIN8metadata28Plugin_Option_IntDescriptionEE11TypeHandlerEEEvRKS2_@Base 0.8.8
 _ZN6google8protobuf8internal20RepeatedPtrFieldBase9MergeFromINS0_16RepeatedPtrFieldIN8metadata31Plugin_Option_StringRestrictionEE11TypeHandlerEEEvRKS2_@Base 0.8.8
 _ZN6google8protobuf8internal20RepeatedPtrFieldBase9MergeFromINS0_16RepeatedPtrFieldISsE11TypeHandlerEEEvRKS2_@Base 0.8.8
 _ZN8metadata10PluginInfo10SharedCtorEv@Base 0.8.8
 _ZN8metadata10PluginInfo10SharedDtorEv@Base 0.8.8
 _ZN8metadata10PluginInfo10descriptorEv@Base 0.8.8
 _ZN8metadata10PluginInfo16default_instanceEv@Base 0.8.8
 _ZN8metadata10PluginInfo16kDepsFieldNumberE@Base 0.8.8
 _ZN8metadata10PluginInfo16kNameFieldNumberE@Base 0.8.8
 _ZN8metadata10PluginInfo16kTimeFieldNumberE@Base 0.8.8
 _ZN8metadata10PluginInfo17default_instance_E@Base 0.8.8
 _ZN8metadata10PluginInfo18kLocaleFieldNumberE@Base 0.8.8
 _ZN8metadata10PluginInfo19kFeatureFieldNumberE@Base 0.8.8
 _ZN8metadata10PluginInfo20kCategoryFieldNumberE@Base 0.8.8
 _ZN8metadata10PluginInfo20kLongDescFieldNumberE@Base 0.8.8
 _ZN8metadata10PluginInfo21InitAsDefaultInstanceEv@Base 0.8.8
 _ZN8metadata10PluginInfo21kShortDescFieldNumberE@Base 0.8.8
 _ZN8metadata10PluginInfo24kPbAbiVersionFieldNumberE@Base 0.8.8
 _ZN8metadata10PluginInfo25kBasicMetadataFieldNumberE@Base 0.8.8
 _ZN8metadata10PluginInfo25kBriefMetadataFieldNumberE@Base 0.8.8
 _ZN8metadata10PluginInfo27MergePartialFromCodedStreamEPN6google8protobuf2io16CodedInputStreamE@Base 0.8.8
 _ZN8metadata10PluginInfo4SwapEPS0_@Base 0.8.8
 _ZN8metadata10PluginInfo5ClearEv@Base 0.8.8
 _ZN8metadata10PluginInfo8CopyFromERKN6google8protobuf7MessageE@Base 0.8.8
 _ZN8metadata10PluginInfo8CopyFromERKS0_@Base 0.8.8
 _ZN8metadata10PluginInfo9MergeFromERKN6google8protobuf7MessageE@Base 0.8.8
 _ZN8metadata10PluginInfo9MergeFromERKS0_@Base 0.8.8
 _ZN8metadata10PluginInfoC1ERKS0_@Base 0.8.8
 _ZN8metadata10PluginInfoC1Ev@Base 0.8.8
 _ZN8metadata10PluginInfoC2ERKS0_@Base 0.8.8
 _ZN8metadata10PluginInfoC2Ev@Base 0.8.8
 _ZN8metadata10PluginInfoD0Ev@Base 0.8.8
 _ZN8metadata10PluginInfoD1Ev@Base 0.8.8
 _ZN8metadata10PluginInfoD2Ev@Base 0.8.8
 _ZN8metadata11PluginBrief10SharedCtorEv@Base 0.8.8
 _ZN8metadata11PluginBrief10SharedDtorEv@Base 0.8.8
 _ZN8metadata11PluginBrief10descriptorEv@Base 0.8.8
 _ZN8metadata11PluginBrief16default_instanceEv@Base 0.8.8
 _ZN8metadata11PluginBrief16kInfoFieldNumberE@Base 0.8.8
 _ZN8metadata11PluginBrief17default_instance_E@Base 0.8.8
 _ZN8metadata11PluginBrief21InitAsDefaultInstanceEv@Base 0.8.8
 _ZN8metadata11PluginBrief27MergePartialFromCodedStreamEPN6google8protobuf2io16CodedInputStreamE@Base 0.8.8
 _ZN8metadata11PluginBrief4SwapEPS0_@Base 0.8.8
 _ZN8metadata11PluginBrief5ClearEv@Base 0.8.8
 _ZN8metadata11PluginBrief8CopyFromERKN6google8protobuf7MessageE@Base 0.8.8
 _ZN8metadata11PluginBrief8CopyFromERKS0_@Base 0.8.8
 _ZN8metadata11PluginBrief9MergeFromERKN6google8protobuf7MessageE@Base 0.8.8
 _ZN8metadata11PluginBrief9MergeFromERKS0_@Base 0.8.8
 _ZN8metadata11PluginBriefC1ERKS0_@Base 0.8.8
 _ZN8metadata11PluginBriefC1Ev@Base 0.8.8
 _ZN8metadata11PluginBriefC2ERKS0_@Base 0.8.8
 _ZN8metadata11PluginBriefC2Ev@Base 0.8.8
 _ZN8metadata11PluginBriefD0Ev@Base 0.8.8
 _ZN8metadata11PluginBriefD1Ev@Base 0.8.8
 _ZN8metadata11PluginBriefD2Ev@Base 0.8.8
 _ZN8metadata13Plugin_Option10SharedCtorEv@Base 0.8.8
 _ZN8metadata13Plugin_Option10SharedDtorEv@Base 0.8.8
 _ZN8metadata13Plugin_Option10descriptorEv@Base 0.8.8
 _ZN8metadata13Plugin_Option13set_list_typeENS_18Plugin_Option_TypeE@Base 0.8.8
 _ZN8metadata13Plugin_Option14Type_ARRAYSIZEE@Base 0.8.8
 _ZN8metadata13Plugin_Option16default_instanceEv@Base 0.8.8
 _ZN8metadata13Plugin_Option16kNameFieldNumberE@Base 0.8.8
 _ZN8metadata13Plugin_Option16kTypeFieldNumberE@Base 0.8.8
 _ZN8metadata13Plugin_Option17default_instance_E@Base 0.8.8
 _ZN8metadata13Plugin_Option17kHintsFieldNumberE@Base 0.8.8
 _ZN8metadata13Plugin_Option18kIntMaxFieldNumberE@Base 0.8.8
 _ZN8metadata13Plugin_Option18kIntMinFieldNumberE@Base 0.8.8
 _ZN8metadata13Plugin_Option19kGroupIdFieldNumberE@Base 0.8.8
 _ZN8metadata13Plugin_Option19kIntDescFieldNumberE@Base 0.8.8
 _ZN8metadata13Plugin_Option19kNodelayFieldNumberE@Base 0.8.8
 _ZN8metadata13Plugin_Option20kFloatMaxFieldNumberE@Base 0.8.8
 _ZN8metadata13Plugin_Option20kFloatMinFieldNumberE@Base 0.8.8
 _ZN8metadata13Plugin_Option20kInternalFieldNumberE@Base 0.8.8
 _ZN8metadata13Plugin_Option20kListTypeFieldNumberE@Base 0.8.8
 _ZN8metadata13Plugin_Option20kLongDescFieldNumberE@Base 0.8.8
 _ZN8metadata13Plugin_Option20kReadOnlyFieldNumberE@Base 0.8.8
 _ZN8metadata13Plugin_Option21InitAsDefaultInstanceEv@Base 0.8.8
 _ZN8metadata13Plugin_Option21kPrecisionFieldNumberE@Base 0.8.8
 _ZN8metadata13Plugin_Option21kShortDescFieldNumberE@Base 0.8.8
 _ZN8metadata13Plugin_Option21kSortStartFieldNumberE@Base 0.8.8
 _ZN8metadata13Plugin_Option22kExtensibleFieldNumberE@Base 0.8.8
 _ZN8metadata13Plugin_Option22kSubgroupIdFieldNumberE@Base 0.8.8
 _ZN8metadata13Plugin_Option23kPassiveGrabFieldNumberE@Base 0.8.8
 _ZN8metadata13Plugin_Option24kDefaultValueFieldNumberE@Base 0.8.8
 _ZN8metadata13Plugin_Option26kStrRestrictionFieldNumberE@Base 0.8.8
 _ZN8metadata13Plugin_Option27MergePartialFromCodedStreamEPN6google8protobuf2io16CodedInputStreamE@Base 0.8.8
 _ZN8metadata13Plugin_Option3INTE@Base 0.8.8
 _ZN8metadata13Plugin_Option3KEYE@Base 0.8.8
 _ZN8metadata13Plugin_Option4BELLE@Base 0.8.8
 _ZN8metadata13Plugin_Option4BOOLE@Base 0.8.8
 _ZN8metadata13Plugin_Option4EDGEE@Base 0.8.8
 _ZN8metadata13Plugin_Option4LISTE@Base 0.8.8
 _ZN8metadata13Plugin_Option4SwapEPS0_@Base 0.8.8
 _ZN8metadata13Plugin_Option5COLORE@Base 0.8.8
 _ZN8metadata13Plugin_Option5ClearEv@Base 0.8.8
 _ZN8metadata13Plugin_Option5FLOATE@Base 0.8.8
 _ZN8metadata13Plugin_Option5MATCHE@Base 0.8.8
 _ZN8metadata13Plugin_Option6ACTIONE@Base 0.8.8
 _ZN8metadata13Plugin_Option6BUTTONE@Base 0.8.8
 _ZN8metadata13Plugin_Option6STRINGE@Base 0.8.8
 _ZN8metadata13Plugin_Option8CopyFromERKN6google8protobuf7MessageE@Base 0.8.8
 _ZN8metadata13Plugin_Option8CopyFromERKS0_@Base 0.8.8
 _ZN8metadata13Plugin_Option8Type_MAXE@Base 0.8.8
 _ZN8metadata13Plugin_Option8Type_MINE@Base 0.8.8
 _ZN8metadata13Plugin_Option8set_typeENS_18Plugin_Option_TypeE@Base 0.8.8
 _ZN8metadata13Plugin_Option9MergeFromERKN6google8protobuf7MessageE@Base 0.8.8
 _ZN8metadata13Plugin_Option9MergeFromERKS0_@Base 0.8.8
 _ZN8metadata13Plugin_OptionC1ERKS0_@Base 0.8.8
 _ZN8metadata13Plugin_OptionC1Ev@Base 0.8.8
 _ZN8metadata13Plugin_OptionC2ERKS0_@Base 0.8.8
 _ZN8metadata13Plugin_OptionC2Ev@Base 0.8.8
 _ZN8metadata13Plugin_OptionD0Ev@Base 0.8.8
 _ZN8metadata13Plugin_OptionD1Ev@Base 0.8.8
 _ZN8metadata13Plugin_OptionD2Ev@Base 0.8.8
 _ZN8metadata13Plugin_Screen10SharedCtorEv@Base 0.8.8
 _ZN8metadata13Plugin_Screen10SharedDtorEv@Base 0.8.8
 _ZN8metadata13Plugin_Screen10descriptorEv@Base 0.8.8
 _ZN8metadata13Plugin_Screen16default_instanceEv@Base 0.8.8
 _ZN8metadata13Plugin_Screen17default_instance_E@Base 0.8.8
 _ZN8metadata13Plugin_Screen18kOptionFieldNumberE@Base 0.8.8
 _ZN8metadata13Plugin_Screen21InitAsDefaultInstanceEv@Base 0.8.8
 _ZN8metadata13Plugin_Screen21kGroupDescFieldNumberE@Base 0.8.8
 _ZN8metadata13Plugin_Screen24kSubgroupDescFieldNumberE@Base 0.8.8
 _ZN8metadata13Plugin_Screen27MergePartialFromCodedStreamEPN6google8protobuf2io16CodedInputStreamE@Base 0.8.8
 _ZN8metadata13Plugin_Screen4SwapEPS0_@Base 0.8.8
 _ZN8metadata13Plugin_Screen5ClearEv@Base 0.8.8
 _ZN8metadata13Plugin_Screen8CopyFromERKN6google8protobuf7MessageE@Base 0.8.8
 _ZN8metadata13Plugin_Screen8CopyFromERKS0_@Base 0.8.8
 _ZN8metadata13Plugin_Screen9MergeFromERKN6google8protobuf7MessageE@Base 0.8.8
 _ZN8metadata13Plugin_Screen9MergeFromERKS0_@Base 0.8.8
 _ZN8metadata13Plugin_ScreenC1ERKS0_@Base 0.8.8
 _ZN8metadata13Plugin_ScreenC1Ev@Base 0.8.8
 _ZN8metadata13Plugin_ScreenC2ERKS0_@Base 0.8.8
 _ZN8metadata13Plugin_ScreenC2Ev@Base 0.8.8
 _ZN8metadata13Plugin_ScreenD0Ev@Base 0.8.8
 _ZN8metadata13Plugin_ScreenD1Ev@Base 0.8.8
 _ZN8metadata13Plugin_ScreenD2Ev@Base 0.8.8
 _ZN8metadata16Plugin_Extension10SharedCtorEv@Base 0.8.8
 _ZN8metadata16Plugin_Extension10SharedDtorEv@Base 0.8.8
 _ZN8metadata16Plugin_Extension10descriptorEv@Base 0.8.8
 _ZN8metadata16Plugin_Extension16default_instanceEv@Base 0.8.8
 _ZN8metadata16Plugin_Extension17default_instance_E@Base 0.8.8
 _ZN8metadata16Plugin_Extension19kDisplayFieldNumberE@Base 0.8.8
 _ZN8metadata16Plugin_Extension21InitAsDefaultInstanceEv@Base 0.8.8
 _ZN8metadata16Plugin_Extension22kBaseOptionFieldNumberE@Base 0.8.8
 _ZN8metadata16Plugin_Extension22kBasePluginFieldNumberE@Base 0.8.8
 _ZN8metadata16Plugin_Extension26kStrRestrictionFieldNumberE@Base 0.8.8
 _ZN8metadata16Plugin_Extension27MergePartialFromCodedStreamEPN6google8protobuf2io16CodedInputStreamE@Base 0.8.8
 _ZN8metadata16Plugin_Extension4SwapEPS0_@Base 0.8.8
 _ZN8metadata16Plugin_Extension5ClearEv@Base 0.8.8
 _ZN8metadata16Plugin_Extension8CopyFromERKN6google8protobuf7MessageE@Base 0.8.8
 _ZN8metadata16Plugin_Extension8CopyFromERKS0_@Base 0.8.8
 _ZN8metadata16Plugin_Extension9MergeFromERKN6google8protobuf7MessageE@Base 0.8.8
 _ZN8metadata16Plugin_Extension9MergeFromERKS0_@Base 0.8.8
 _ZN8metadata16Plugin_ExtensionC1ERKS0_@Base 0.8.8
 _ZN8metadata16Plugin_ExtensionC1Ev@Base 0.8.8
 _ZN8metadata16Plugin_ExtensionC2ERKS0_@Base 0.8.8
 _ZN8metadata16Plugin_ExtensionC2Ev@Base 0.8.8
 _ZN8metadata16Plugin_ExtensionD0Ev@Base 0.8.8
 _ZN8metadata16Plugin_ExtensionD1Ev@Base 0.8.8
 _ZN8metadata16Plugin_ExtensionD2Ev@Base 0.8.8
 _ZN8metadata23PluginInfo_Dependencies10SharedCtorEv@Base 0.8.8
 _ZN8metadata23PluginInfo_Dependencies10SharedDtorEv@Base 0.8.8
 _ZN8metadata23PluginInfo_Dependencies10descriptorEv@Base 0.8.8
 _ZN8metadata23PluginInfo_Dependencies16default_instanceEv@Base 0.8.8
 _ZN8metadata23PluginInfo_Dependencies17default_instance_E@Base 0.8.8
 _ZN8metadata23PluginInfo_Dependencies21InitAsDefaultInstanceEv@Base 0.8.8
 _ZN8metadata23PluginInfo_Dependencies23kAfterPluginFieldNumberE@Base 0.8.8
 _ZN8metadata23PluginInfo_Dependencies24kBeforePluginFieldNumberE@Base 0.8.8
 _ZN8metadata23PluginInfo_Dependencies25kRequirePluginFieldNumberE@Base 0.8.8
 _ZN8metadata23PluginInfo_Dependencies26kConflictPluginFieldNumberE@Base 0.8.8
 _ZN8metadata23PluginInfo_Dependencies26kRequireFeatureFieldNumberE@Base 0.8.8
 _ZN8metadata23PluginInfo_Dependencies27MergePartialFromCodedStreamEPN6google8protobuf2io16CodedInputStreamE@Base 0.8.8
 _ZN8metadata23PluginInfo_Dependencies27kConflictFeatureFieldNumberE@Base 0.8.8
 _ZN8metadata23PluginInfo_Dependencies4SwapEPS0_@Base 0.8.8
 _ZN8metadata23PluginInfo_Dependencies5ClearEv@Base 0.8.8
 _ZN8metadata23PluginInfo_Dependencies8CopyFromERKN6google8protobuf7MessageE@Base 0.8.8
 _ZN8metadata23PluginInfo_Dependencies8CopyFromERKS0_@Base 0.8.8
 _ZN8metadata23PluginInfo_Dependencies9MergeFromERKN6google8protobuf7MessageE@Base 0.8.8
 _ZN8metadata23PluginInfo_Dependencies9MergeFromERKS0_@Base 0.8.8
 _ZN8metadata23PluginInfo_DependenciesC1ERKS0_@Base 0.8.8
 _ZN8metadata23PluginInfo_DependenciesC1Ev@Base 0.8.8
 _ZN8metadata23PluginInfo_DependenciesC2ERKS0_@Base 0.8.8
 _ZN8metadata23PluginInfo_DependenciesC2Ev@Base 0.8.8
 _ZN8metadata23PluginInfo_DependenciesD0Ev@Base 0.8.8
 _ZN8metadata23PluginInfo_DependenciesD1Ev@Base 0.8.8
 _ZN8metadata23PluginInfo_DependenciesD2Ev@Base 0.8.8
 _ZN8metadata24Plugin_Option_ColorValue10SharedCtorEv@Base 0.8.8
 _ZN8metadata24Plugin_Option_ColorValue10SharedDtorEv@Base 0.8.8
 _ZN8metadata24Plugin_Option_ColorValue10descriptorEv@Base 0.8.8
 _ZN8metadata24Plugin_Option_ColorValue13_default_red_E@Base 0.8.8
 _ZN8metadata24Plugin_Option_ColorValue14_default_blue_E@Base 0.8.8
 _ZN8metadata24Plugin_Option_ColorValue15_default_alpha_E@Base 0.8.8
 _ZN8metadata24Plugin_Option_ColorValue15_default_green_E@Base 0.8.8
 _ZN8metadata24Plugin_Option_ColorValue15kRedFieldNumberE@Base 0.8.8
 _ZN8metadata24Plugin_Option_ColorValue16default_instanceEv@Base 0.8.8
 _ZN8metadata24Plugin_Option_ColorValue16kBlueFieldNumberE@Base 0.8.8
 _ZN8metadata24Plugin_Option_ColorValue17default_instance_E@Base 0.8.8
 _ZN8metadata24Plugin_Option_ColorValue17kAlphaFieldNumberE@Base 0.8.8
 _ZN8metadata24Plugin_Option_ColorValue17kGreenFieldNumberE@Base 0.8.8
 _ZN8metadata24Plugin_Option_ColorValue21InitAsDefaultInstanceEv@Base 0.8.8
 _ZN8metadata24Plugin_Option_ColorValue27MergePartialFromCodedStreamEPN6google8protobuf2io16CodedInputStreamE@Base 0.8.8
 _ZN8metadata24Plugin_Option_ColorValue4SwapEPS0_@Base 0.8.8
 _ZN8metadata24Plugin_Option_ColorValue5ClearEv@Base 0.8.8
 _ZN8metadata24Plugin_Option_ColorValue8CopyFromERKN6google8protobuf7MessageE@Base 0.8.8
 _ZN8metadata24Plugin_Option_ColorValue8CopyFromERKS0_@Base 0.8.8
 _ZN8metadata24Plugin_Option_ColorValue9MergeFromERKN6google8protobuf7MessageE@Base 0.8.8
 _ZN8metadata24Plugin_Option_ColorValue9MergeFromERKS0_@Base 0.8.8
 _ZN8metadata24Plugin_Option_ColorValueC1ERKS0_@Base 0.8.8
 _ZN8metadata24Plugin_Option_ColorValueC1Ev@Base 0.8.8
 _ZN8metadata24Plugin_Option_ColorValueC2ERKS0_@Base 0.8.8
 _ZN8metadata24Plugin_Option_ColorValueC2Ev@Base 0.8.8
 _ZN8metadata24Plugin_Option_ColorValueD0Ev@Base 0.8.8
 _ZN8metadata24Plugin_Option_ColorValueD1Ev@Base 0.8.8
 _ZN8metadata24Plugin_Option_ColorValueD2Ev@Base 0.8.8
 _ZN8metadata26Plugin_Option_GenericValue10SharedCtorEv@Base 0.8.8
 _ZN8metadata26Plugin_Option_GenericValue10SharedDtorEv@Base 0.8.8
 _ZN8metadata26Plugin_Option_GenericValue10descriptorEv@Base 0.8.8
 _ZN8metadata26Plugin_Option_GenericValue16default_instanceEv@Base 0.8.8
 _ZN8metadata26Plugin_Option_GenericValue17default_instance_E@Base 0.8.8
 _ZN8metadata26Plugin_Option_GenericValue20kIntValueFieldNumberE@Base 0.8.8
 _ZN8metadata26Plugin_Option_GenericValue21InitAsDefaultInstanceEv@Base 0.8.8
 _ZN8metadata26Plugin_Option_GenericValue21kBoolValueFieldNumberE@Base 0.8.8
 _ZN8metadata26Plugin_Option_GenericValue21kEdgeValueFieldNumberE@Base 0.8.8
 _ZN8metadata26Plugin_Option_GenericValue22kColorValueFieldNumberE@Base 0.8.8
 _ZN8metadata26Plugin_Option_GenericValue22kFloatValueFieldNumberE@Base 0.8.8
 _ZN8metadata26Plugin_Option_GenericValue23kStringValueFieldNumberE@Base 0.8.8
 _ZN8metadata26Plugin_Option_GenericValue27MergePartialFromCodedStreamEPN6google8protobuf2io16CodedInputStreamE@Base 0.8.8
 _ZN8metadata26Plugin_Option_GenericValue4SwapEPS0_@Base 0.8.8
 _ZN8metadata26Plugin_Option_GenericValue5ClearEv@Base 0.8.8
 _ZN8metadata26Plugin_Option_GenericValue8CopyFromERKN6google8protobuf7MessageE@Base 0.8.8
 _ZN8metadata26Plugin_Option_GenericValue8CopyFromERKS0_@Base 0.8.8
 _ZN8metadata26Plugin_Option_GenericValue9MergeFromERKN6google8protobuf7MessageE@Base 0.8.8
 _ZN8metadata26Plugin_Option_GenericValue9MergeFromERKS0_@Base 0.8.8
 _ZN8metadata26Plugin_Option_GenericValueC1ERKS0_@Base 0.8.8
 _ZN8metadata26Plugin_Option_GenericValueC1Ev@Base 0.8.8
 _ZN8metadata26Plugin_Option_GenericValueC2ERKS0_@Base 0.8.8
 _ZN8metadata26Plugin_Option_GenericValueC2Ev@Base 0.8.8
 _ZN8metadata26Plugin_Option_GenericValueD0Ev@Base 0.8.8
 _ZN8metadata26Plugin_Option_GenericValueD1Ev@Base 0.8.8
 _ZN8metadata26Plugin_Option_GenericValueD2Ev@Base 0.8.8
 _ZN8metadata26Plugin_Option_Type_IsValidEi@Base 0.8.8
 _ZN8metadata28Plugin_Option_IntDescription10SharedCtorEv@Base 0.8.8
 _ZN8metadata28Plugin_Option_IntDescription10SharedDtorEv@Base 0.8.8
 _ZN8metadata28Plugin_Option_IntDescription10descriptorEv@Base 0.8.8
 _ZN8metadata28Plugin_Option_IntDescription16default_instanceEv@Base 0.8.8
 _ZN8metadata28Plugin_Option_IntDescription16kNameFieldNumberE@Base 0.8.8
 _ZN8metadata28Plugin_Option_IntDescription17default_instance_E@Base 0.8.8
 _ZN8metadata28Plugin_Option_IntDescription17kValueFieldNumberE@Base 0.8.8
 _ZN8metadata28Plugin_Option_IntDescription21InitAsDefaultInstanceEv@Base 0.8.8
 _ZN8metadata28Plugin_Option_IntDescription27MergePartialFromCodedStreamEPN6google8protobuf2io16CodedInputStreamE@Base 0.8.8
 _ZN8metadata28Plugin_Option_IntDescription4SwapEPS0_@Base 0.8.8
 _ZN8metadata28Plugin_Option_IntDescription5ClearEv@Base 0.8.8
 _ZN8metadata28Plugin_Option_IntDescription8CopyFromERKN6google8protobuf7MessageE@Base 0.8.8
 _ZN8metadata28Plugin_Option_IntDescription8CopyFromERKS0_@Base 0.8.8
 _ZN8metadata28Plugin_Option_IntDescription9MergeFromERKN6google8protobuf7MessageE@Base 0.8.8
 _ZN8metadata28Plugin_Option_IntDescription9MergeFromERKS0_@Base 0.8.8
 _ZN8metadata28Plugin_Option_IntDescriptionC1ERKS0_@Base 0.8.8
 _ZN8metadata28Plugin_Option_IntDescriptionC1Ev@Base 0.8.8
 _ZN8metadata28Plugin_Option_IntDescriptionC2ERKS0_@Base 0.8.8
 _ZN8metadata28Plugin_Option_IntDescriptionC2Ev@Base 0.8.8
 _ZN8metadata28Plugin_Option_IntDescriptionD0Ev@Base 0.8.8
 _ZN8metadata28Plugin_Option_IntDescriptionD1Ev@Base 0.8.8
 _ZN8metadata28Plugin_Option_IntDescriptionD2Ev@Base 0.8.8
 _ZN8metadata29Plugin_Option_Type_descriptorEv@Base 0.8.8
 _ZN8metadata31Plugin_Option_StringRestriction10SharedCtorEv@Base 0.8.8
 _ZN8metadata31Plugin_Option_StringRestriction10SharedDtorEv@Base 0.8.8
 _ZN8metadata31Plugin_Option_StringRestriction10descriptorEv@Base 0.8.8
 _ZN8metadata31Plugin_Option_StringRestriction16default_instanceEv@Base 0.8.8
 _ZN8metadata31Plugin_Option_StringRestriction16kNameFieldNumberE@Base 0.8.8
 _ZN8metadata31Plugin_Option_StringRestriction17default_instance_E@Base 0.8.8
 _ZN8metadata31Plugin_Option_StringRestriction17kValueFieldNumberE@Base 0.8.8
 _ZN8metadata31Plugin_Option_StringRestriction21InitAsDefaultInstanceEv@Base 0.8.8
 _ZN8metadata31Plugin_Option_StringRestriction27MergePartialFromCodedStreamEPN6google8protobuf2io16CodedInputStreamE@Base 0.8.8
 _ZN8metadata31Plugin_Option_StringRestriction4SwapEPS0_@Base 0.8.8
 _ZN8metadata31Plugin_Option_StringRestriction5ClearEv@Base 0.8.8
 _ZN8metadata31Plugin_Option_StringRestriction8CopyFromERKN6google8protobuf7MessageE@Base 0.8.8
 _ZN8metadata31Plugin_Option_StringRestriction8CopyFromERKS0_@Base 0.8.8
 _ZN8metadata31Plugin_Option_StringRestriction9MergeFromERKN6google8protobuf7MessageE@Base 0.8.8
 _ZN8metadata31Plugin_Option_StringRestriction9MergeFromERKS0_@Base 0.8.8
 _ZN8metadata31Plugin_Option_StringRestrictionC1ERKS0_@Base 0.8.8
 _ZN8metadata31Plugin_Option_StringRestrictionC1Ev@Base 0.8.8
 _ZN8metadata31Plugin_Option_StringRestrictionC2ERKS0_@Base 0.8.8
 _ZN8metadata31Plugin_Option_StringRestrictionC2Ev@Base 0.8.8
 _ZN8metadata31Plugin_Option_StringRestrictionD0Ev@Base 0.8.8
 _ZN8metadata31Plugin_Option_StringRestrictionD1Ev@Base 0.8.8
 _ZN8metadata31Plugin_Option_StringRestrictionD2Ev@Base 0.8.8
 _ZN8metadata37protobuf_AddDesc_compizconfig_2eprotoEv@Base 0.8.8
 _ZN8metadata40protobuf_AssignDesc_compizconfig_2eprotoEv@Base 0.8.8
 _ZN8metadata42protobuf_ShutdownFile_compizconfig_2eprotoEv@Base 0.8.8
 _ZN8metadata51static_descriptor_initializer_compizconfig_2eproto_E@Base 0.8.8
 _ZN8metadata6Plugin10SharedCtorEv@Base 0.8.8
 _ZN8metadata6Plugin10SharedDtorEv@Base 0.8.8
 _ZN8metadata6Plugin10descriptorEv@Base 0.8.8
 _ZN8metadata6Plugin16default_instanceEv@Base 0.8.8
 _ZN8metadata6Plugin16kInfoFieldNumberE@Base 0.8.8
 _ZN8metadata6Plugin17default_instance_E@Base 0.8.8
 _ZN8metadata6Plugin18kScreenFieldNumberE@Base 0.8.8
 _ZN8metadata6Plugin19kDisplayFieldNumberE@Base 0.8.8
 _ZN8metadata6Plugin21InitAsDefaultInstanceEv@Base 0.8.8
 _ZN8metadata6Plugin21kExtensionFieldNumberE@Base 0.8.8
 _ZN8metadata6Plugin27MergePartialFromCodedStreamEPN6google8protobuf2io16CodedInputStreamE@Base 0.8.8
 _ZN8metadata6Plugin4SwapEPS0_@Base 0.8.8
 _ZN8metadata6Plugin5ClearEv@Base 0.8.8
 _ZN8metadata6Plugin8CopyFromERKN6google8protobuf7MessageE@Base 0.8.8
 _ZN8metadata6Plugin8CopyFromERKS0_@Base 0.8.8
 _ZN8metadata6Plugin9MergeFromERKN6google8protobuf7MessageE@Base 0.8.8
 _ZN8metadata6Plugin9MergeFromERKS0_@Base 0.8.8
 _ZN8metadata6PluginC1ERKS0_@Base 0.8.8
 _ZN8metadata6PluginC1Ev@Base 0.8.8
 _ZN8metadata6PluginC2ERKS0_@Base 0.8.8
 _ZN8metadata6PluginC2Ev@Base 0.8.8
 _ZN8metadata6PluginD0Ev@Base 0.8.8
 _ZN8metadata6PluginD1Ev@Base 0.8.8
 _ZN8metadata6PluginD2Ev@Base 0.8.8
 _ZNK6google8protobuf7Message13GetReflectionEv@Base 0.8.8
 _ZNK8metadata10PluginInfo11GetMetadataEv@Base 0.8.8
 _ZNK8metadata10PluginInfo13GetCachedSizeEv@Base 0.8.8
 _ZNK8metadata10PluginInfo13IsInitializedEv@Base 0.8.8
 _ZNK8metadata10PluginInfo13SetCachedSizeEi@Base 0.8.8
 _ZNK8metadata10PluginInfo24SerializeWithCachedSizesEPN6google8protobuf2io17CodedOutputStreamE@Base 0.8.8
 _ZNK8metadata10PluginInfo31SerializeWithCachedSizesToArrayEPh@Base 0.8.8
 _ZNK8metadata10PluginInfo3NewEv@Base 0.8.8
 _ZNK8metadata10PluginInfo8ByteSizeEv@Base 0.8.8
 _ZNK8metadata11PluginBrief11GetMetadataEv@Base 0.8.8
 _ZNK8metadata11PluginBrief13GetCachedSizeEv@Base 0.8.8
 _ZNK8metadata11PluginBrief13IsInitializedEv@Base 0.8.8
 _ZNK8metadata11PluginBrief13SetCachedSizeEi@Base 0.8.8
 _ZNK8metadata11PluginBrief24SerializeWithCachedSizesEPN6google8protobuf2io17CodedOutputStreamE@Base 0.8.8
 _ZNK8metadata11PluginBrief31SerializeWithCachedSizesToArrayEPh@Base 0.8.8
 _ZNK8metadata11PluginBrief3NewEv@Base 0.8.8
 _ZNK8metadata11PluginBrief8ByteSizeEv@Base 0.8.8
 _ZNK8metadata13Plugin_Option11GetMetadataEv@Base 0.8.8
 _ZNK8metadata13Plugin_Option13GetCachedSizeEv@Base 0.8.8
 _ZNK8metadata13Plugin_Option13IsInitializedEv@Base 0.8.8
 _ZNK8metadata13Plugin_Option13SetCachedSizeEi@Base 0.8.8
 _ZNK8metadata13Plugin_Option24SerializeWithCachedSizesEPN6google8protobuf2io17CodedOutputStreamE@Base 0.8.8
 _ZNK8metadata13Plugin_Option31SerializeWithCachedSizesToArrayEPh@Base 0.8.8
 _ZNK8metadata13Plugin_Option3NewEv@Base 0.8.8
 _ZNK8metadata13Plugin_Option8ByteSizeEv@Base 0.8.8
 _ZNK8metadata13Plugin_Screen11GetMetadataEv@Base 0.8.8
 _ZNK8metadata13Plugin_Screen13GetCachedSizeEv@Base 0.8.8
 _ZNK8metadata13Plugin_Screen13IsInitializedEv@Base 0.8.8
 _ZNK8metadata13Plugin_Screen13SetCachedSizeEi@Base 0.8.8
 _ZNK8metadata13Plugin_Screen24SerializeWithCachedSizesEPN6google8protobuf2io17CodedOutputStreamE@Base 0.8.8
 _ZNK8metadata13Plugin_Screen31SerializeWithCachedSizesToArrayEPh@Base 0.8.8
 _ZNK8metadata13Plugin_Screen3NewEv@Base 0.8.8
 _ZNK8metadata13Plugin_Screen8ByteSizeEv@Base 0.8.8
 _ZNK8metadata16Plugin_Extension11GetMetadataEv@Base 0.8.8
 _ZNK8metadata16Plugin_Extension13GetCachedSizeEv@Base 0.8.8
 _ZNK8metadata16Plugin_Extension13IsInitializedEv@Base 0.8.8
 _ZNK8metadata16Plugin_Extension13SetCachedSizeEi@Base 0.8.8
 _ZNK8metadata16Plugin_Extension24SerializeWithCachedSizesEPN6google8protobuf2io17CodedOutputStreamE@Base 0.8.8
 _ZNK8metadata16Plugin_Extension31SerializeWithCachedSizesToArrayEPh@Base 0.8.8
 _ZNK8metadata16Plugin_Extension3NewEv@Base 0.8.8
 _ZNK8metadata16Plugin_Extension8ByteSizeEv@Base 0.8.8
 _ZNK8metadata23PluginInfo_Dependencies11GetMetadataEv@Base 0.8.8
 _ZNK8metadata23PluginInfo_Dependencies13GetCachedSizeEv@Base 0.8.8
 _ZNK8metadata23PluginInfo_Dependencies13IsInitializedEv@Base 0.8.8
 _ZNK8metadata23PluginInfo_Dependencies13SetCachedSizeEi@Base 0.8.8
 _ZNK8metadata23PluginInfo_Dependencies24SerializeWithCachedSizesEPN6google8protobuf2io17CodedOutputStreamE@Base 0.8.8
 _ZNK8metadata23PluginInfo_Dependencies31SerializeWithCachedSizesToArrayEPh@Base 0.8.8
 _ZNK8metadata23PluginInfo_Dependencies3NewEv@Base 0.8.8
 _ZNK8metadata23PluginInfo_Dependencies8ByteSizeEv@Base 0.8.8
 _ZNK8metadata24Plugin_Option_ColorValue11GetMetadataEv@Base 0.8.8
 _ZNK8metadata24Plugin_Option_ColorValue13GetCachedSizeEv@Base 0.8.8
 _ZNK8metadata24Plugin_Option_ColorValue13IsInitializedEv@Base 0.8.8
 _ZNK8metadata24Plugin_Option_ColorValue13SetCachedSizeEi@Base 0.8.8
 _ZNK8metadata24Plugin_Option_ColorValue24SerializeWithCachedSizesEPN6google8protobuf2io17CodedOutputStreamE@Base 0.8.8
 _ZNK8metadata24Plugin_Option_ColorValue31SerializeWithCachedSizesToArrayEPh@Base 0.8.8
 _ZNK8metadata24Plugin_Option_ColorValue3NewEv@Base 0.8.8
 _ZNK8metadata24Plugin_Option_ColorValue8ByteSizeEv@Base 0.8.8
 _ZNK8metadata26Plugin_Option_GenericValue11GetMetadataEv@Base 0.8.8
 _ZNK8metadata26Plugin_Option_GenericValue13GetCachedSizeEv@Base 0.8.8
 _ZNK8metadata26Plugin_Option_GenericValue13IsInitializedEv@Base 0.8.8
 _ZNK8metadata26Plugin_Option_GenericValue13SetCachedSizeEi@Base 0.8.8
 _ZNK8metadata26Plugin_Option_GenericValue24SerializeWithCachedSizesEPN6google8protobuf2io17CodedOutputStreamE@Base 0.8.8
 _ZNK8metadata26Plugin_Option_GenericValue31SerializeWithCachedSizesToArrayEPh@Base 0.8.8
 _ZNK8metadata26Plugin_Option_GenericValue3NewEv@Base 0.8.8
 _ZNK8metadata26Plugin_Option_GenericValue8ByteSizeEv@Base 0.8.8
 _ZNK8metadata28Plugin_Option_IntDescription11GetMetadataEv@Base 0.8.8
 _ZNK8metadata28Plugin_Option_IntDescription13GetCachedSizeEv@Base 0.8.8
 _ZNK8metadata28Plugin_Option_IntDescription13IsInitializedEv@Base 0.8.8
 _ZNK8metadata28Plugin_Option_IntDescription13SetCachedSizeEi@Base 0.8.8
 _ZNK8metadata28Plugin_Option_IntDescription24SerializeWithCachedSizesEPN6google8protobuf2io17CodedOutputStreamE@Base 0.8.8
 _ZNK8metadata28Plugin_Option_IntDescription31SerializeWithCachedSizesToArrayEPh@Base 0.8.8
 _ZNK8metadata28Plugin_Option_IntDescription3NewEv@Base 0.8.8
 _ZNK8metadata28Plugin_Option_IntDescription8ByteSizeEv@Base 0.8.8
 _ZNK8metadata31Plugin_Option_StringRestriction11GetMetadataEv@Base 0.8.8
 _ZNK8metadata31Plugin_Option_StringRestriction13GetCachedSizeEv@Base 0.8.8
 _ZNK8metadata31Plugin_Option_StringRestriction13IsInitializedEv@Base 0.8.8
 _ZNK8metadata31Plugin_Option_StringRestriction13SetCachedSizeEi@Base 0.8.8
 _ZNK8metadata31Plugin_Option_StringRestriction24SerializeWithCachedSizesEPN6google8protobuf2io17CodedOutputStreamE@Base 0.8.8
 _ZNK8metadata31Plugin_Option_StringRestriction31SerializeWithCachedSizesToArrayEPh@Base 0.8.8
 _ZNK8metadata31Plugin_Option_StringRestriction3NewEv@Base 0.8.8
 _ZNK8metadata31Plugin_Option_StringRestriction8ByteSizeEv@Base 0.8.8
 _ZNK8metadata6Plugin11GetMetadataEv@Base 0.8.8
 _ZNK8metadata6Plugin13GetCachedSizeEv@Base 0.8.8
 _ZNK8metadata6Plugin13IsInitializedEv@Base 0.8.8
 _ZNK8metadata6Plugin13SetCachedSizeEi@Base 0.8.8
 _ZNK8metadata6Plugin24SerializeWithCachedSizesEPN6google8protobuf2io17CodedOutputStreamE@Base 0.8.8
 _ZNK8metadata6Plugin31SerializeWithCachedSizesToArrayEPh@Base 0.8.8
 _ZNK8metadata6Plugin3NewEv@Base 0.8.8
 _ZNK8metadata6Plugin8ByteSizeEv@Base 0.8.8
 _ZTIN8metadata10PluginInfoE@Base 0.8.8
 _ZTIN8metadata11PluginBriefE@Base 0.8.8
 _ZTIN8metadata13Plugin_OptionE@Base 0.8.8
 _ZTIN8metadata13Plugin_ScreenE@Base 0.8.8
 _ZTIN8metadata16Plugin_ExtensionE@Base 0.8.8
 _ZTIN8metadata23PluginInfo_DependenciesE@Base 0.8.8
 _ZTIN8metadata24Plugin_Option_ColorValueE@Base 0.8.8
 _ZTIN8metadata26Plugin_Option_GenericValueE@Base 0.8.8
 _ZTIN8metadata28Plugin_Option_IntDescriptionE@Base 0.8.8
 _ZTIN8metadata31Plugin_Option_StringRestrictionE@Base 0.8.8
 _ZTIN8metadata6PluginE@Base 0.8.8
 _ZTSN8metadata10PluginInfoE@Base 0.8.8
 _ZTSN8metadata11PluginBriefE@Base 0.8.8
 _ZTSN8metadata13Plugin_OptionE@Base 0.8.8
 _ZTSN8metadata13Plugin_ScreenE@Base 0.8.8
 _ZTSN8metadata16Plugin_ExtensionE@Base 0.8.8
 _ZTSN8metadata23PluginInfo_DependenciesE@Base 0.8.8
 _ZTSN8metadata24Plugin_Option_ColorValueE@Base 0.8.8
 _ZTSN8metadata26Plugin_Option_GenericValueE@Base 0.8.8
 _ZTSN8metadata28Plugin_Option_IntDescriptionE@Base 0.8.8
 _ZTSN8metadata31Plugin_Option_StringRestrictionE@Base 0.8.8
 _ZTSN8metadata6PluginE@Base 0.8.8
 _ZTVN8metadata10PluginInfoE@Base 0.8.8
 _ZTVN8metadata11PluginBriefE@Base 0.8.8
 _ZTVN8metadata13Plugin_OptionE@Base 0.8.8
 _ZTVN8metadata13Plugin_ScreenE@Base 0.8.8
 _ZTVN8metadata16Plugin_ExtensionE@Base 0.8.8
 _ZTVN8metadata23PluginInfo_DependenciesE@Base 0.8.8
 _ZTVN8metadata24Plugin_Option_ColorValueE@Base 0.8.8
 _ZTVN8metadata26Plugin_Option_GenericValueE@Base 0.8.8
 _ZTVN8metadata28Plugin_Option_IntDescriptionE@Base 0.8.8
 _ZTVN8metadata31Plugin_Option_StringRestrictionE@Base 0.8.8
 _ZTVN8metadata6PluginE@Base 0.8.8
 basicMetadata@Base 0.8.8
 ccsAddConfigWatch@Base 0.8.8
 ccsAddFileWatch@Base 0.8.8
 ccsBackendInfoListAppend@Base 0.8.8
 ccsBackendInfoListFind@Base 0.8.8
 ccsBackendInfoListFree@Base 0.8.8
 ccsBackendInfoListGetItem@Base 0.8.8
 ccsBackendInfoListInsert@Base 0.8.8
 ccsBackendInfoListInsertBefore@Base 0.8.8
 ccsBackendInfoListLength@Base 0.8.8
 ccsBackendInfoListPrepend@Base 0.8.8
 ccsBackendInfoListRemove@Base 0.8.8
 ccsButtonBindingToString@Base 0.8.8
 ccsCanDisablePlugin@Base 0.8.8
 ccsCanEnablePlugin@Base 0.8.8
 ccsCheckFileWatches@Base 0.8.8
 ccsColorToString@Base 0.8.8
 ccsContextDestroy@Base 0.8.8
 ccsContextNew@Base 0.8.8
 ccsCreateDirFor@Base 0.8.8
 ccsDeleteProfile@Base 0.8.8
 ccsDisableFileWatch@Base 0.8.8
 ccsEdgesToModString@Base 0.8.8
 ccsEdgesToString@Base 0.8.8
 ccsEmptyContextNew@Base 0.8.8
 ccsEnableFileWatch@Base 0.8.8
 ccsExportToFile@Base 0.8.8
 ccsFindPlugin@Base 0.8.8
 ccsFindSetting@Base 0.8.8
 ccsFreeBackendInfo@Base 0.8.8
 ccsFreeContext@Base 0.8.8
 ccsFreeGroup@Base 0.8.8
 ccsFreeIntDesc@Base 0.8.8
 ccsFreePlugin@Base 0.8.8
 ccsFreePluginConflict@Base 0.8.8
 ccsFreeSetting@Base 0.8.8
 ccsFreeSettingValue@Base 0.8.8
 ccsFreeStrExtension@Base 0.8.8
 ccsFreeStrRestriction@Base 0.8.8
 ccsFreeSubGroup@Base 0.8.8
 ccsGetActivePluginList@Base 0.8.8
 ccsGetBackend@Base 0.8.8
 ccsGetBell@Base 0.8.8
 ccsGetBool@Base 0.8.8
 ccsGetBoolArrayFromValueList@Base 0.8.8
 ccsGetButton@Base 0.8.8
 ccsGetColor@Base 0.8.8
 ccsGetColorArrayFromValueList@Base 0.8.8
 ccsGetEdge@Base 0.8.8
 ccsGetExistingBackends@Base 0.8.8
 ccsGetExistingProfiles@Base 0.8.8
 ccsGetFloat@Base 0.8.8
 ccsGetFloatArrayFromValueList@Base 0.8.8
 ccsGetInt@Base 0.8.8
 ccsGetIntArrayFromValueList@Base 0.8.8
 ccsGetIntegrationEnabled@Base 0.8.8
 ccsGetKey@Base 0.8.8
 ccsGetList@Base 0.8.8
 ccsGetListFromStringArray@Base 0.8.8
 ccsGetMatch@Base 0.8.8
 ccsGetMatchArrayFromValueList@Base 0.8.8
 ccsGetPluginGroups@Base 0.8.8
 ccsGetPluginListAutoSort@Base 0.8.8
 ccsGetPluginSettings@Base 0.8.8
 ccsGetPluginStrExtensions@Base 0.8.8
 ccsGetProfile@Base 0.8.8
 ccsGetSortedPluginStringList@Base 0.8.8
 ccsGetString@Base 0.8.8
 ccsGetStringArrayFromList@Base 0.8.8
 ccsGetStringArrayFromValueList@Base 0.8.8
 ccsGetStringListFromValueList@Base 0.8.8
 ccsGetValueListFromBoolArray@Base 0.8.8
 ccsGetValueListFromColorArray@Base 0.8.8
 ccsGetValueListFromFloatArray@Base 0.8.8
 ccsGetValueListFromIntArray@Base 0.8.8
 ccsGetValueListFromMatchArray@Base 0.8.8
 ccsGetValueListFromStringArray@Base 0.8.8
 ccsGetValueListFromStringList@Base 0.8.8
 ccsGroupListAppend@Base 0.8.8
 ccsGroupListFind@Base 0.8.8
 ccsGroupListFree@Base 0.8.8
 ccsGroupListGetItem@Base 0.8.8
 ccsGroupListInsert@Base 0.8.8
 ccsGroupListInsertBefore@Base 0.8.8
 ccsGroupListLength@Base 0.8.8
 ccsGroupListPrepend@Base 0.8.8
 ccsGroupListRemove@Base 0.8.8
 ccsImportFromFile@Base 0.8.8
 ccsIniClose@Base 0.8.8
 ccsIniGetBell@Base 0.8.8
 ccsIniGetBool@Base 0.8.8
 ccsIniGetButton@Base 0.8.8
 ccsIniGetColor@Base 0.8.8
 ccsIniGetEdge@Base 0.8.8
 ccsIniGetFloat@Base 0.8.8
 ccsIniGetInt@Base 0.8.8
 ccsIniGetKey@Base 0.8.8
 ccsIniGetList@Base 0.8.8
 ccsIniGetString@Base 0.8.8
 ccsIniNew@Base 0.8.8
 ccsIniOpen@Base 0.8.8
 ccsIniRemoveEntry@Base 0.8.8
 ccsIniSave@Base 0.8.8
 ccsIniSetBell@Base 0.8.8
 ccsIniSetBool@Base 0.8.8
 ccsIniSetButton@Base 0.8.8
 ccsIniSetColor@Base 0.8.8
 ccsIniSetEdge@Base 0.8.8
 ccsIniSetFloat@Base 0.8.8
 ccsIniSetInt@Base 0.8.8
 ccsIniSetKey@Base 0.8.8
 ccsIniSetList@Base 0.8.8
 ccsIniSetString@Base 0.8.8
 ccsIntDescListAppend@Base 0.8.8
 ccsIntDescListFind@Base 0.8.8
 ccsIntDescListFree@Base 0.8.8
 ccsIntDescListGetItem@Base 0.8.8
 ccsIntDescListInsert@Base 0.8.8
 ccsIntDescListInsertBefore@Base 0.8.8
 ccsIntDescListLength@Base 0.8.8
 ccsIntDescListPrepend@Base 0.8.8
 ccsIntDescListRemove@Base 0.8.8
 ccsIsEqualButton@Base 0.8.8
 ccsIsEqualColor@Base 0.8.8
 ccsIsEqualKey@Base 0.8.8
 ccsKeyBindingToString@Base 0.8.8
 ccsLoadPlugin@Base 0.8.8
 ccsLoadPluginSettings@Base 0.8.8
 ccsLoadPlugins@Base 0.8.8
 ccsModStringToEdges@Base 0.8.8
 ccsModifiersToString@Base 0.8.8
 ccsPluginConflictListAppend@Base 0.8.8
 ccsPluginConflictListFind@Base 0.8.8
 ccsPluginConflictListFree@Base 0.8.8
 ccsPluginConflictListGetItem@Base 0.8.8
 ccsPluginConflictListInsert@Base 0.8.8
 ccsPluginConflictListInsertBefore@Base 0.8.8
 ccsPluginConflictListLength@Base 0.8.8
 ccsPluginConflictListPrepend@Base 0.8.8
 ccsPluginConflictListRemove@Base 0.8.8
 ccsPluginIsActive@Base 0.8.8
 ccsPluginListAppend@Base 0.8.8
 ccsPluginListFind@Base 0.8.8
 ccsPluginListFree@Base 0.8.8
 ccsPluginListGetItem@Base 0.8.8
 ccsPluginListInsert@Base 0.8.8
 ccsPluginListInsertBefore@Base 0.8.8
 ccsPluginListLength@Base 0.8.8
 ccsPluginListPrepend@Base 0.8.8
 ccsPluginListRemove@Base 0.8.8
 ccsPluginSetActive@Base 0.8.8
 ccsProcessEvents@Base 0.8.8
 ccsReadConfig@Base 0.8.8
 ccsReadPluginSettings@Base 0.8.8
 ccsReadSettings@Base 0.8.8
 ccsRemoveFileWatch@Base 0.8.8
 ccsResetToDefault@Base 0.8.8
 ccsSetBackend@Base 0.8.8
 ccsSetBasicMetadata@Base 0.8.8
 ccsSetBell@Base 0.8.8
 ccsSetBool@Base 0.8.8
 ccsSetButton@Base 0.8.8
 ccsSetColor@Base 0.8.8
 ccsSetEdge@Base 0.8.8
 ccsSetFloat@Base 0.8.8
 ccsSetInt@Base 0.8.8
 ccsSetIntegrationEnabled@Base 0.8.8
 ccsSetKey@Base 0.8.8
 ccsSetList@Base 0.8.8
 ccsSetMatch@Base 0.8.8
 ccsSetPluginListAutoSort@Base 0.8.8
 ccsSetProfile@Base 0.8.8
 ccsSetString@Base 0.8.8
 ccsSetValue@Base 0.8.8
 ccsSettingIsIntegrated@Base 0.8.8
 ccsSettingIsReadOnly@Base 0.8.8
 ccsSettingListAppend@Base 0.8.8
 ccsSettingListFind@Base 0.8.8
 ccsSettingListFree@Base 0.8.8
 ccsSettingListGetItem@Base 0.8.8
 ccsSettingListInsert@Base 0.8.8
 ccsSettingListInsertBefore@Base 0.8.8
 ccsSettingListLength@Base 0.8.8
 ccsSettingListPrepend@Base 0.8.8
 ccsSettingListRemove@Base 0.8.8
 ccsSettingValueListAppend@Base 0.8.8
 ccsSettingValueListFind@Base 0.8.8
 ccsSettingValueListFree@Base 0.8.8
 ccsSettingValueListGetItem@Base 0.8.8
 ccsSettingValueListInsert@Base 0.8.8
 ccsSettingValueListInsertBefore@Base 0.8.8
 ccsSettingValueListLength@Base 0.8.8
 ccsSettingValueListPrepend@Base 0.8.8
 ccsSettingValueListRemove@Base 0.8.8
 ccsStrExtensionListAppend@Base 0.8.8
 ccsStrExtensionListFind@Base 0.8.8
 ccsStrExtensionListFree@Base 0.8.8
 ccsStrExtensionListGetItem@Base 0.8.8
 ccsStrExtensionListInsert@Base 0.8.8
 ccsStrExtensionListInsertBefore@Base 0.8.8
 ccsStrExtensionListLength@Base 0.8.8
 ccsStrExtensionListPrepend@Base 0.8.8
 ccsStrExtensionListRemove@Base 0.8.8
 ccsStrRestrictionListAppend@Base 0.8.8
 ccsStrRestrictionListFind@Base 0.8.8
 ccsStrRestrictionListFree@Base 0.8.8
 ccsStrRestrictionListGetItem@Base 0.8.8
 ccsStrRestrictionListInsert@Base 0.8.8
 ccsStrRestrictionListInsertBefore@Base 0.8.8
 ccsStrRestrictionListLength@Base 0.8.8
 ccsStrRestrictionListPrepend@Base 0.8.8
 ccsStrRestrictionListRemove@Base 0.8.8
 ccsStringListAppend@Base 0.8.8
 ccsStringListFind@Base 0.8.8
 ccsStringListFree@Base 0.8.8
 ccsStringListGetItem@Base 0.8.8
 ccsStringListInsert@Base 0.8.8
 ccsStringListInsertBefore@Base 0.8.8
 ccsStringListLength@Base 0.8.8
 ccsStringListPrepend@Base 0.8.8
 ccsStringListRemove@Base 0.8.8
 ccsStringToButtonBinding@Base 0.8.8
 ccsStringToColor@Base 0.8.8
 ccsStringToEdges@Base 0.8.8
 ccsStringToKeyBinding@Base 0.8.8
 ccsStringToModifiers@Base 0.8.8
 ccsSubGroupListAppend@Base 0.8.8
 ccsSubGroupListFind@Base 0.8.8
 ccsSubGroupListFree@Base 0.8.8
 ccsSubGroupListGetItem@Base 0.8.8
 ccsSubGroupListInsert@Base 0.8.8
 ccsSubGroupListInsertBefore@Base 0.8.8
 ccsSubGroupListLength@Base 0.8.8
 ccsSubGroupListPrepend@Base 0.8.8
 ccsSubGroupListRemove@Base 0.8.8
 ccsWriteChangedSettings@Base 0.8.8
 ccsWriteConfig@Base 0.8.8
 ccsWriteSettings@Base 0.8.8
 collateGroups@Base 0.8.8
 curLocale@Base 0.8.8
 dictionary_new@Base 0.8.8
 edgeList@Base 0.8.8
 iniparser_add_entry@Base 0.8.8
 iniparser_dump_ini@Base 0.8.8
 iniparser_find_entry@Base 0.8.8
 iniparser_free@Base 0.8.8
 iniparser_getnsec@Base 0.8.8
 iniparser_getsecname@Base 0.8.8
 iniparser_getstring@Base 0.8.8
 iniparser_new@Base 0.8.8
 iniparser_setstr@Base 0.8.8
 iniparser_unset@Base 0.8.8
 metadataCacheDir@Base 0.8.8
 modifierList@Base 0.8.8
 persistentPluginBriefPB@Base 0.8.8
 persistentPluginPB@Base 0.8.8
 shortLocale@Base 0.8.8
 usingProtobuf@Base 0.8.8
